target datalayout = "e-m:e-p270:32:32-p271:32:32-p272:64:64-i64:64-i128:128-f80:128-n8:16:32:64-S128"
target triple = "x86_64-pc-linux-gnu"

%struct._packet_info = type { ptr, ptr, i32, i32, %struct.nstime_t, %struct.nstime_t, %struct.nstime_t, i8, ptr, ptr, ptr, ptr, %struct._address, %struct._address, %struct._address, %struct._address, %struct._address, %struct._address, i32, ptr, i8, [3 x i8], %struct.anon, i32, i32, i32, i32, ptr, i8, ptr, ptr, i16, i16, i32, i32, i16, i32, i32, ptr, ptr, ptr, i8, i8, i16, i16, i16, i32, i16, i16, ptr, ptr, ptr, ptr, ptr, i32, i32 }
%struct.nstime_t = type { i64, i32 }
%struct._address = type { i32, i32, ptr, ptr }
%struct.anon = type { i8, [3 x i8] }

@hf_capwap_control_header = internal global i32 0, align 4
@hf_capwap_control_header_msg_type = internal global i32 0, align 4
@hf_capwap_control_header_msg_type_enterprise_nbr = internal global i32 0, align 4
@hf_capwap_control_header_msg_type_enterprise_specific = internal global i32 0, align 4
@hf_capwap_control_header_seq_number = internal global i32 0, align 4
@hf_capwap_control_header_msg_element_length = internal global i32 0, align 4
@hf_capwap_control_header_flags = internal global i32 0, align 4
@ett_capwap_control_header = internal global i32 0, align 4
@ett_capwap_control_header_msg = internal global i32 0, align 4
@.str.1090 = private unnamed_addr constant [6 x i8] c" - %s\00", align 1
@.str.1091 = private unnamed_addr constant [28 x i8] c"Unknown Message Type (0x%x)\00", align 1

; Function Attrs: null_pointer_is_valid sspstrong uwtable
define internal i32 @dissect_capwap_control_header(ptr noundef %0, ptr noundef %1, i32 noundef %2, ptr noundef %3) #0 {
  %5 = alloca ptr, align 8
  %6 = alloca ptr, align 8
  %7 = alloca i32, align 4
  %8 = alloca ptr, align 8
  %9 = alloca i32, align 4
  %10 = alloca ptr, align 8
  %11 = alloca ptr, align 8
  %12 = alloca ptr, align 8
  %13 = alloca ptr, align 8
  store ptr %0, ptr %5, align 8
  store ptr %1, ptr %6, align 8
  store i32 %2, ptr %7, align 4
  store ptr %3, ptr %8, align 8
  call void @llvm.lifetime.start.p0(i64 4, ptr %9) #3
  store i32 0, ptr %9, align 4
  call void @llvm.lifetime.start.p0(i64 8, ptr %10) #3
  call void @llvm.lifetime.start.p0(i64 8, ptr %11) #3
  call void @llvm.lifetime.start.p0(i64 8, ptr %12) #3
  call void @llvm.lifetime.start.p0(i64 8, ptr %13) #3
  %14 = load ptr, ptr %6, align 8
  %15 = load i32, ptr @hf_capwap_control_header, align 4
  %16 = load ptr, ptr %5, align 8
  %17 = load i32, ptr %7, align 4
  %18 = call ptr @proto_tree_add_item(ptr noundef %14, i32 noundef %15, ptr noundef %16, i32 noundef %17, i32 noundef 8, i32 noundef 0)
  store ptr %18, ptr %10, align 8
  %19 = load ptr, ptr %10, align 8
  %20 = load i32, ptr @ett_capwap_control_header, align 4
  %21 = call ptr @proto_item_add_subtree(ptr noundef %19, i32 noundef %20)
  store ptr %21, ptr %12, align 8
  %22 = load ptr, ptr %12, align 8
  %23 = load i32, ptr @hf_capwap_control_header_msg_type, align 4
  %24 = load ptr, ptr %5, align 8
  %25 = load i32, ptr %7, align 4
  %26 = call ptr @proto_tree_add_item(ptr noundef %22, i32 noundef %23, ptr noundef %24, i32 noundef %25, i32 noundef 4, i32 noundef 0)
  store ptr %26, ptr %11, align 8
  %27 = load ptr, ptr %11, align 8
  %28 = load i32, ptr @ett_capwap_control_header_msg, align 4
  %29 = call ptr @proto_item_add_subtree(ptr noundef %27, i32 noundef %28)
  store ptr %29, ptr %13, align 8
  %30 = load ptr, ptr %13, align 8
  %31 = load i32, ptr @hf_capwap_control_header_msg_type_enterprise_nbr, align 4
  %32 = load ptr, ptr %5, align 8
  %33 = load i32, ptr %7, align 4
  %34 = call ptr @proto_tree_add_item(ptr noundef %30, i32 noundef %31, ptr noundef %32, i32 noundef %33, i32 noundef 3, i32 noundef 0)
  %35 = load ptr, ptr %13, align 8
  %36 = load i32, ptr @hf_capwap_control_header_msg_type_enterprise_specific, align 4
  %37 = load ptr, ptr %5, align 8
  %38 = load i32, ptr %7, align 4
  %39 = call ptr @proto_tree_add_item(ptr noundef %35, i32 noundef %36, ptr noundef %37, i32 noundef %38, i32 noundef 4, i32 noundef 0)
  %40 = load ptr, ptr %8, align 8
  %41 = getelementptr inbounds nuw %struct._packet_info, ptr %40, i32 0, i32 1
  %42 = load ptr, ptr %41, align 8
  %43 = load ptr, ptr %5, align 8
  %44 = load i32, ptr %7, align 4
  %45 = call i32 @tvb_get_ntohl(ptr noundef %43, i32 noundef %44)
  %46 = call ptr @val_to_str(i32 noundef %45, ptr noundef @message_type, ptr noundef @.str.1091)
  call void (ptr, i32, ptr, ...) @col_append_fstr(ptr noundef %42, i32 noundef 25, ptr noundef @.str.1090, ptr noundef %46)
  %47 = load i32, ptr %9, align 4
  %48 = add i32 %47, 4
  store i32 %48, ptr %9, align 4
  %49 = load ptr, ptr %12, align 8
  %50 = load i32, ptr @hf_capwap_control_header_seq_number, align 4
  %51 = load ptr, ptr %5, align 8
  %52 = load i32, ptr %7, align 4
  %53 = load i32, ptr %9, align 4
  %54 = add i32 %52, %53
  %55 = call ptr @proto_tree_add_item(ptr noundef %49, i32 noundef %50, ptr noundef %51, i32 noundef %54, i32 noundef 1, i32 noundef 0)
  %56 = load i32, ptr %9, align 4
  %57 = add i32 %56, 1
  store i32 %57, ptr %9, align 4
  %58 = load ptr, ptr %12, align 8
  %59 = load i32, ptr @hf_capwap_control_header_msg_element_length, align 4
  %60 = load ptr, ptr %5, align 8
  %61 = load i32, ptr %7, align 4
  %62 = load i32, ptr %9, align 4
  %63 = add i32 %61, %62
  %64 = call ptr @proto_tree_add_item(ptr noundef %58, i32 noundef %59, ptr noundef %60, i32 noundef %63, i32 noundef 2, i32 noundef 0)
  %65 = load i32, ptr %9, align 4
  %66 = add i32 %65, 2
  store i32 %66, ptr %9, align 4
  %67 = load ptr, ptr %12, align 8
  %68 = load i32, ptr @hf_capwap_control_header_flags, align 4
  %69 = load ptr, ptr %5, align 8
  %70 = load i32, ptr %7, align 4
  %71 = load i32, ptr %9, align 4
  %72 = add i32 %70, %71
  %73 = call ptr @proto_tree_add_item(ptr noundef %67, i32 noundef %68, ptr noundef %69, i32 noundef %72, i32 noundef 1, i32 noundef 0)
  %74 = load i32, ptr %9, align 4
  %75 = add i32 %74, 1
  store i32 %75, ptr %9, align 4
  %76 = load i32, ptr %9, align 4
  call void @llvm.lifetime.end.p0(i64 8, ptr %13) #3
  call void @llvm.lifetime.end.p0(i64 8, ptr %12) #3
  call void @llvm.lifetime.end.p0(i64 8, ptr %11) #3
  call void @llvm.lifetime.end.p0(i64 8, ptr %10) #3
  call void @llvm.lifetime.end.p0(i64 4, ptr %9) #3
  ret i32 %76
}