; Function Attrs: null_pointer_is_valid sspstrong uwtable
define internal fastcc void @dissect_capwap_control_header(ptr noundef %0, ptr noundef %1, i32 noundef range(i32 0, 1024) %2, ptr noundef readonly captures(none) %3) unnamed_addr #0 {
  %5 = load i32, ptr @hf_capwap_control_header, align 4
  %6 = tail call ptr @proto_tree_add_item(ptr noundef %1, i32 noundef %5, ptr noundef %0, i32 noundef %2, i32 noundef 8, i32 noundef 0)
  %7 = load i32, ptr @ett_capwap_control_header, align 4
  %8 = tail call ptr @proto_item_add_subtree(ptr noundef %6, i32 noundef %7)
  %9 = load i32, ptr @hf_capwap_control_header_msg_type, align 4
  %10 = tail call ptr @proto_tree_add_item(ptr noundef %8, i32 noundef %9, ptr noundef %0, i32 noundef %2, i32 noundef 4, i32 noundef 0)
  %11 = load i32, ptr @ett_capwap_control_header_msg, align 4
  %12 = tail call ptr @proto_item_add_subtree(ptr noundef %10, i32 noundef %11)
  %13 = load i32, ptr @hf_capwap_control_header_msg_type_enterprise_nbr, align 4
  %14 = tail call ptr @proto_tree_add_item(ptr noundef %12, i32 noundef %13, ptr noundef %0, i32 noundef %2, i32 noundef 3, i32 noundef 0)
  %15 = load i32, ptr @hf_capwap_control_header_msg_type_enterprise_specific, align 4
  %16 = tail call ptr @proto_tree_add_item(ptr noundef %12, i32 noundef %15, ptr noundef %0, i32 noundef %2, i32 noundef 4, i32 noundef 0)
  %17 = getelementptr inbounds nuw i8, ptr %3, i64 8
  %18 = load ptr, ptr %17, align 8
  %19 = tail call i32 @tvb_get_ntohl(ptr noundef %0, i32 noundef %2)
  %20 = tail call ptr @val_to_str(i32 noundef %19, ptr noundef nonnull @message_type, ptr noundef nonnull @.str.1091)
  tail call void (ptr, i32, ptr, ...) @col_append_fstr(ptr noundef %18, i32 noundef 25, ptr noundef nonnull @.str.1090, ptr noundef %20)
  %21 = load i32, ptr @hf_capwap_control_header_seq_number, align 4
  %22 = add nuw nsw i32 %2, 4
  %23 = tail call ptr @proto_tree_add_item(ptr noundef %8, i32 noundef %21, ptr noundef %0, i32 noundef %22, i32 noundef 1, i32 noundef 0)
  %24 = load i32, ptr @hf_capwap_control_header_msg_element_length, align 4
  %25 = add nuw nsw i32 %2, 5
  %26 = tail call ptr @proto_tree_add_item(ptr noundef %8, i32 noundef %24, ptr noundef %0, i32 noundef %25, i32 noundef 2, i32 noundef 0)
  %27 = load i32, ptr @hf_capwap_control_header_flags, align 4
  %28 = add nuw nsw i32 %2, 7
  %29 = tail call ptr @proto_tree_add_item(ptr noundef %8, i32 noundef %27, ptr noundef %0, i32 noundef %28, i32 noundef 1, i32 noundef 0)
  ret void
}